target datalayout = "e-m:e-p270:32:32-p271:32:32-p272:64:64-i64:64-i128:128-f80:128-n8:16:32:64-S128"
target triple = "x86_64-pc-linux-gnu"

; Function Attrs: nounwind uwtable
define internal zeroext i1 @decompress_string(ptr noundef %0, ptr noundef %1, i64 noundef %2) #0 {
  %4 = alloca i1, align 1
  %5 = alloca ptr, align 8
  %6 = alloca ptr, align 8
  %7 = alloca i64, align 8
  %8 = alloca i32, align 4
  %9 = alloca i8, align 1
  %10 = alloca ptr, align 8
  %11 = alloca i32, align 4
  store ptr %0, ptr %5, align 8, !tbaa !10
  store ptr %1, ptr %6, align 8, !tbaa !3
  store i64 %2, ptr %7, align 8, !tbaa !8
  call void @llvm.lifetime.start.p0(i64 4, ptr %8) #8
  call void @llvm.lifetime.start.p0(i64 1, ptr %9) #8
  call void @llvm.lifetime.start.p0(i64 8, ptr %10) #8
  %12 = load ptr, ptr %6, align 8, !tbaa !3
  call void @llvm.memcpy.p0.p0.i64(ptr align 4 %8, ptr align 1 %12, i64 4, i1 false)
  %13 = load i32, ptr %8, align 4, !tbaa !17
  %14 = icmp eq i32 %13, -1
  br i1 %14, label %15, label %17

15:                                               ; preds = %3
  %16 = load ptr, ptr %5, align 8, !tbaa !10
  store ptr null, ptr %16, align 8, !tbaa !3
  store i1 false, ptr %4, align 1
  store i32 1, ptr %11, align 4
  br label %40

17:                                               ; preds = %3
  %18 = load i32, ptr %8, align 4, !tbaa !17
  %19 = add i32 %18, 1
  store i32 %19, ptr %8, align 4, !tbaa !17
  %20 = load ptr, ptr %6, align 8, !tbaa !3
  %21 = getelementptr inbounds nuw i8, ptr %20, i64 4
  store ptr %21, ptr %10, align 8, !tbaa !3
  %22 = load ptr, ptr %5, align 8, !tbaa !10
  %23 = load i32, ptr %8, align 4, !tbaa !17
  %24 = zext i32 %23 to i64
  %25 = load ptr, ptr %10, align 8, !tbaa !3
  %26 = load i64, ptr %7, align 8, !tbaa !8
  %27 = call zeroext i1 @doit(ptr noundef %22, i64 noundef %24, ptr noundef %25, i64 noundef %26)
  %28 = zext i1 %27 to i8
  store i8 %28, ptr %9, align 1, !tbaa !36
  %29 = load i8, ptr %9, align 1, !tbaa !36, !range !37, !noundef !38
  %30 = trunc i8 %29 to i1
  br i1 %30, label %31, label %38

31:                                               ; preds = %17
  %32 = load ptr, ptr %5, align 8, !tbaa !10
  %33 = load i32, ptr %8, align 4, !tbaa !17
  %34 = sub i32 %33, 1
  %35 = zext i32 %34 to i64
  %36 = getelementptr inbounds nuw ptr, ptr %32, i64 %35
  %37 = load ptr, ptr %36, align 8, !tbaa !3
  store i8 0, ptr %37, align 1, !tbaa !39
  store i1 true, ptr %4, align 1
  store i32 1, ptr %11, align 4
  br label %40

38:                                               ; preds = %17
  %39 = load ptr, ptr %5, align 8, !tbaa !10
  store ptr null, ptr %39, align 8, !tbaa !3
  store i1 false, ptr %4, align 1
  store i32 1, ptr %11, align 4
  br label %40

40:                                               ; preds = %38, %31, %15
  call void @llvm.lifetime.end.p0(i64 8, ptr %10) #8
  call void @llvm.lifetime.end.p0(i64 1, ptr %9) #8
  call void @llvm.lifetime.end.p0(i64 4, ptr %8) #8
  %41 = load i1, ptr %4, align 1
  ret i1 %41
}