; Function Attrs: nounwind uwtable
define internal noundef zeroext i1 @decompress_string(ptr noundef captures(none) initializes((0, 8)) %0, ptr noundef %1, i64 noundef %2) #0 {
  %.0.copyload = load i32, ptr %1, align 1
  %4 = icmp eq i32 %.0.copyload, -1
  br i1 %4, label %5, label %6

5:                                                ; preds = %3
  store ptr null, ptr %0, align 8, !tbaa !3
  br label %16

6:                                                ; preds = %3
  %7 = add nuw i32 %.0.copyload, 1
  %8 = getelementptr inbounds nuw i8, ptr %1, i64 4
  %9 = zext i32 %7 to i64
  %10 = tail call fastcc zeroext i1 @doit(ptr noundef %0, i64 noundef %9, ptr noundef nonnull %8, i64 noundef %2)
  br i1 %10, label %11, label %15

11:                                               ; preds = %6
  %12 = zext i32 %.0.copyload to i64
  %13 = getelementptr inbounds nuw ptr, ptr %0, i64 %12
  %14 = load ptr, ptr %13, align 8, !tbaa !3
  store i8 0, ptr %14, align 1, !tbaa !31
  br label %16

15:                                               ; preds = %6
  store ptr null, ptr %0, align 8, !tbaa !3
  br label %16

16:                                               ; preds = %15, %11, %5
  %.0 = phi i1 [ false, %5 ], [ true, %11 ], [ false, %15 ]
  ret i1 %.0
}